target datalayout = "e-m:e-p270:32:32-p271:32:32-p272:64:64-i64:64-i128:128-f80:128-n8:16:32:64-S128"
target triple = "x86_64-pc-linux-gnu"

%struct._MRIStepInnerStepper = type { ptr, ptr, ptr, ptr, i32, i32, i32, double, double, ptr, ptr, i64, i64, i64, i64 }
%struct._MRIStepInnerStepper_Ops = type { ptr, ptr, ptr, ptr, ptr, ptr }

; Function Attrs: nounwind uwtable
define i32 @mriStepInnerStepper_ResetAccumulatedError(ptr noundef %0) #0 {
  %2 = alloca i32, align 4
  %3 = alloca ptr, align 8
  store ptr %0, ptr %3, align 8, !tbaa !11
  %4 = load ptr, ptr %3, align 8, !tbaa !11
  %5 = icmp eq ptr %4, null
  br i1 %5, label %6, label %7

6:                                                ; preds = %1
  store i32 -22, ptr %2, align 4
  br label %34

7:                                                ; preds = %1
  %8 = load ptr, ptr %3, align 8, !tbaa !11
  %9 = getelementptr inbounds nuw %struct._MRIStepInnerStepper, ptr %8, i32 0, i32 1
  %10 = load ptr, ptr %9, align 8, !tbaa !173
  %11 = icmp eq ptr %10, null
  br i1 %11, label %12, label %13

12:                                               ; preds = %7
  store i32 -22, ptr %2, align 4
  br label %34

13:                                               ; preds = %7
  %14 = load ptr, ptr %3, align 8, !tbaa !11
  %15 = getelementptr inbounds nuw %struct._MRIStepInnerStepper, ptr %14, i32 0, i32 1
  %16 = load ptr, ptr %15, align 8, !tbaa !173
  %17 = getelementptr inbounds nuw %struct._MRIStepInnerStepper_Ops, ptr %16, i32 0, i32 3
  %18 = load ptr, ptr %17, align 8, !tbaa !244
  %19 = icmp ne ptr %18, null
  br i1 %19, label %20, label %33

20:                                               ; preds = %13
  %21 = load ptr, ptr %3, align 8, !tbaa !11
  %22 = getelementptr inbounds nuw %struct._MRIStepInnerStepper, ptr %21, i32 0, i32 1
  %23 = load ptr, ptr %22, align 8, !tbaa !173
  %24 = getelementptr inbounds nuw %struct._MRIStepInnerStepper_Ops, ptr %23, i32 0, i32 4
  %25 = load ptr, ptr %24, align 8, !tbaa !245
  %26 = load ptr, ptr %3, align 8, !tbaa !11
  %27 = call i32 %25(ptr noundef %26)
  %28 = load ptr, ptr %3, align 8, !tbaa !11
  %29 = getelementptr inbounds nuw %struct._MRIStepInnerStepper, ptr %28, i32 0, i32 6
  store i32 %27, ptr %29, align 8, !tbaa !229
  %30 = load ptr, ptr %3, align 8, !tbaa !11
  %31 = getelementptr inbounds nuw %struct._MRIStepInnerStepper, ptr %30, i32 0, i32 6
  %32 = load i32, ptr %31, align 8, !tbaa !229
  store i32 %32, ptr %2, align 4
  br label %34

33:                                               ; preds = %13
  store i32 0, ptr %2, align 4
  br label %34

34:                                               ; preds = %33, %20, %12, %6
  %35 = load i32, ptr %2, align 4
  ret i32 %35
}