; Function Attrs: nounwind uwtable
define i32 @mriStepInnerStepper_ResetAccumulatedError(ptr noundef %0) local_unnamed_addr #0 {
  %2 = icmp eq ptr %0, null
  br i1 %2, label %15, label %3

3:                                                ; preds = %1
  %4 = getelementptr inbounds nuw i8, ptr %0, i64 8
  %5 = load ptr, ptr %4, align 8, !tbaa !103
  %6 = icmp eq ptr %5, null
  br i1 %6, label %15, label %7

7:                                                ; preds = %3
  %8 = getelementptr inbounds nuw i8, ptr %5, i64 24
  %9 = load ptr, ptr %8, align 8, !tbaa !162
  %.not = icmp eq ptr %9, null
  br i1 %.not, label %15, label %10

10:                                               ; preds = %7
  %11 = getelementptr inbounds nuw i8, ptr %5, i64 32
  %12 = load ptr, ptr %11, align 8, !tbaa !163
  %13 = tail call i32 %12(ptr noundef nonnull %0) #14
  %14 = getelementptr inbounds nuw i8, ptr %0, i64 40
  store i32 %13, ptr %14, align 8, !tbaa !166
  br label %15

15:                                               ; preds = %7, %3, %1, %10
  %.0 = phi i32 [ %13, %10 ], [ -22, %1 ], [ -22, %3 ], [ 0, %7 ]
  ret i32 %.0
}